target datalayout = "e-m:e-p270:32:32-p271:32:32-p272:64:64-i64:64-i128:128-f80:128-n8:16:32:64-S128"
target triple = "x86_64-unknown-linux-gnu"

%struct.static_call_site = type { i32, i32 }

@static_call_initialized = internal unnamed_addr global i32 0, align 4
@.str = private unnamed_addr constant [28 x i8] c"kernel/static_call_inline.c\00", align 1
@system_state = external dso_local local_unnamed_addr global i32, align 4
@__stop_static_call_sites = external dso_local global [0 x %struct.static_call_site], align 4
@__static_call_update.__already_done = internal unnamed_addr global i1 false, section ".data.once", align 1
@.str.1 = private unnamed_addr constant [36 x i8] c"can't patch static call site at %pS\00", align 1

; Function Attrs: fn_ret_thunk_extern nounwind null_pointer_is_valid
define dso_local void @__static_call_update(ptr noundef %0, ptr noundef %1, ptr noundef %2) #0 align 16 {
  %4 = alloca ptr, align 8
  %5 = alloca ptr, align 8
  %6 = alloca ptr, align 8
  call void @llvm.lifetime.start.p0(i64 8, ptr nonnull %4)
  call void @llvm.lifetime.start.p0(i64 8, ptr nonnull %5)
  call void @llvm.lifetime.start.p0(i64 8, ptr nonnull %6)
  store ptr null, ptr %4, align 8
  store ptr null, ptr %5, align 8
  store ptr null, ptr %6, align 8
  tail call void @cpus_read_lock() #12
  tail call void @mutex_lock(ptr noundef nonnull @static_call_mutex) #12
  %7 = load ptr, ptr %0, align 8
  %8 = icmp eq ptr %7, %2
  br i1 %8, label %93, label %9

9:                                                ; preds = %3
  store ptr %2, ptr %0, align 8
  tail call void @arch_static_call_transform(ptr noundef null, ptr noundef %1, ptr noundef %2, i1 noundef zeroext false) #12
  %10 = load i32, ptr @static_call_initialized, align 4
  %11 = icmp eq i32 %10, 0
  br i1 %11, label %12, label %13, !prof !6

12:                                               ; preds = %9
  tail call void asm sideeffect "315: nop\0A\09.pushsection .discard.instr_begin\0A\09.long 315b - .\0A\09.popsection\0A\09", "i,~{dirflag},~{fpsr},~{flags}"(i32 315) #12, !srcloc !10
  tail call void asm sideeffect "1:\09.byte 0x0f, 0x0b\0A.pushsection __bug_table,\22aw\22\0A2:\09.long 1b - .\09# bug_entry::bug_addr\0A\09.long ${0:c} - .\09# bug_entry::file\0A\09.word ${1:c}\09# bug_entry::line\0A\09.word ${2:c}\09# bug_entry::flags\0A\09.org 2b+${3:c}\0A.popsection\0A998:\0A\09.pushsection .discard.reachable\0A\09.long 998b\0A\09.popsection\0A\09", "i,i,i,i,~{dirflag},~{fpsr},~{flags}"(ptr nonnull @.str, i32 153, i32 2307, i64 12) #12, !srcloc !11
  tail call void asm sideeffect "316: nop\0A\09.pushsection .discard.instr_end\0A\09.long 316b - .\0A\09.popsection\0A\09", "i,~{dirflag},~{fpsr},~{flags}"(i32 316) #12, !srcloc !12
  br label %93

13:                                               ; preds = %9
  %14 = getelementptr inbounds i8, ptr %0, i64 8
  %15 = load i64, ptr %14, align 8
  %16 = and i64 %15, 1
  %17 = icmp eq i64 %16, 0
  br i1 %17, label %18, label %20

18:                                               ; preds = %13
  %19 = load ptr, ptr %14, align 8
  br label %20

20:                                               ; preds = %18, %13
  %21 = phi ptr [ %19, %18 ], [ null, %13 ]
  %22 = and i64 %15, -2
  %23 = inttoptr i64 %22 to ptr
  %24 = select i1 %17, ptr null, ptr %23
  store ptr %21, ptr %4, align 8
  store ptr null, ptr %5, align 8
  store ptr %24, ptr %6, align 8
  br label %25

25:                                               ; preds = %88, %20
  %26 = phi ptr [ %4, %20 ], [ %89, %88 ]
  %27 = phi ptr [ %6, %20 ], [ %91, %88 ]
  %28 = phi ptr [ %5, %20 ], [ %90, %88 ]
  %29 = load ptr, ptr %28, align 8
  %30 = load ptr, ptr %27, align 8
  %31 = icmp eq ptr %30, null
  br i1 %31, label %88, label %32

32:                                               ; preds = %25
  %33 = load i32, ptr @system_state, align 4
  %34 = icmp ult i32 %33, 3
  %35 = icmp eq ptr %29, null
  br i1 %35, label %45, label %36

36:                                               ; preds = %32
  %37 = getelementptr inbounds i8, ptr %29, i64 1096
  %38 = load ptr, ptr %37, align 8
  %39 = getelementptr inbounds i8, ptr %29, i64 1092
  %40 = load i32, ptr %39, align 4
  %41 = sext i32 %40 to i64
  %42 = getelementptr %struct.static_call_site, ptr %38, i64 %41
  %43 = load i32, ptr %29, align 64
  %44 = icmp eq i32 %43, 1
  br label %45

45:                                               ; preds = %36, %32
  %46 = phi i1 [ %44, %36 ], [ %34, %32 ]
  %47 = phi ptr [ %42, %36 ], [ @__stop_static_call_sites, %32 ]
  %48 = icmp ult ptr %30, %47
  br i1 %48, label %49, label %88

49:                                               ; preds = %85, %45
  %50 = phi ptr [ %86, %85 ], [ %30, %45 ]
  %51 = getelementptr inbounds i8, ptr %50, i64 4
  %52 = load i32, ptr %51, align 4
  %53 = sext i32 %52 to i64
  %54 = ptrtoint ptr %51 to i64
  %55 = add i64 %53, %54
  %56 = and i64 %55, -4
  %57 = inttoptr i64 %56 to ptr
  %58 = icmp eq ptr %57, %0
  br i1 %58, label %59, label %88

59:                                               ; preds = %49
  %60 = load i32, ptr %50, align 4
  %61 = sext i32 %60 to i64
  %62 = ptrtoint ptr %50 to i64
  %63 = add i64 %61, %62
  %64 = inttoptr i64 %63 to ptr
  br i1 %46, label %70, label %65

65:                                               ; preds = %59
  %66 = zext i32 %52 to i64
  %67 = add i64 %66, %54
  %68 = and i64 %67, 2
  %69 = icmp eq i64 %68, 0
  br i1 %69, label %70, label %85

70:                                               ; preds = %65, %59
  %71 = tail call i32 @kernel_text_address(i64 noundef %63) #12
  %72 = icmp eq i32 %71, 0
  %73 = load i32, ptr %51, align 4
  %74 = zext i32 %73 to i64
  %75 = add i64 %74, %54
  br i1 %72, label %76, label %82

76:                                               ; preds = %70
  %77 = and i64 %75, 2
  %78 = icmp ne i64 %77, 0
  %79 = load i1, ptr @__static_call_update.__already_done, align 1
  %80 = select i1 %78, i1 true, i1 %79
  br i1 %80, label %85, label %81, !prof !13

81:                                               ; preds = %76
  store i1 true, ptr @__static_call_update.__already_done, align 1
  tail call void asm sideeffect "317: nop\0A\09.pushsection .discard.instr_begin\0A\09.long 317b - .\0A\09.popsection\0A\09", "i,~{dirflag},~{fpsr},~{flags}"(i32 317) #12, !srcloc !14
  tail call void (ptr, ...) @__warn_printk(ptr noundef nonnull @.str.1, ptr noundef %64) #12
  tail call void asm sideeffect "318: nop\0A\09.pushsection .discard.instr_begin\0A\09.long 318b - .\0A\09.popsection\0A\09", "i,~{dirflag},~{fpsr},~{flags}"(i32 318) #12, !srcloc !15
  tail call void asm sideeffect "1:\09.byte 0x0f, 0x0b\0A.pushsection __bug_table,\22aw\22\0A2:\09.long 1b - .\09# bug_entry::bug_addr\0A\09.long ${0:c} - .\09# bug_entry::file\0A\09.word ${1:c}\09# bug_entry::line\0A\09.word ${2:c}\09# bug_entry::flags\0A\09.org 2b+${3:c}\0A.popsection\0A998:\0A\09.pushsection .discard.reachable\0A\09.long 998b\0A\09.popsection\0A\09", "i,i,i,i,~{dirflag},~{fpsr},~{flags}"(ptr nonnull @.str, i32 205, i32 2313, i64 12) #12, !srcloc !16
  tail call void asm sideeffect "319: nop\0A\09.pushsection .discard.instr_end\0A\09.long 319b - .\0A\09.popsection\0A\09", "i,~{dirflag},~{fpsr},~{flags}"(i32 319) #12, !srcloc !17
  tail call void asm sideeffect "320: nop\0A\09.pushsection .discard.instr_end\0A\09.long 320b - .\0A\09.popsection\0A\09", "i,~{dirflag},~{fpsr},~{flags}"(i32 320) #12, !srcloc !18
  br label %85

82:                                               ; preds = %70
  %83 = and i64 %75, 1
  %84 = icmp ne i64 %83, 0
  tail call void @arch_static_call_transform(ptr noundef %64, ptr noundef null, ptr noundef %2, i1 noundef zeroext %84) #12
  br label %85

85:                                               ; preds = %82, %81, %76, %65
  %86 = getelementptr i8, ptr %50, i64 8
  %87 = icmp ult ptr %86, %47
  br i1 %87, label %49, label %88, !llvm.loop !19

88:                                               ; preds = %85, %49, %45, %25
  %89 = load ptr, ptr %26, align 8
  %90 = getelementptr inbounds i8, ptr %89, i64 8
  %91 = getelementptr inbounds i8, ptr %89, i64 16
  %92 = icmp eq ptr %89, null
  br i1 %92, label %93, label %25, !llvm.loop !22

93:                                               ; preds = %88, %12, %3
  tail call void @mutex_unlock(ptr noundef nonnull @static_call_mutex) #12
  tail call void @cpus_read_unlock() #12
  call void @llvm.lifetime.end.p0(i64 8, ptr nonnull %4)
  call void @llvm.lifetime.end.p0(i64 8, ptr nonnull %5)
  call void @llvm.lifetime.end.p0(i64 8, ptr nonnull %6)
  ret void
}