; Function Attrs: fn_ret_thunk_extern nounwind null_pointer_is_valid
define dso_local void @__static_call_update(ptr noundef %0, ptr noundef %1, ptr noundef %2) #0 align 16 {
  %4 = alloca ptr, align 8
  call void @llvm.lifetime.start.p0(i64 8, ptr nonnull %4)
  tail call void @cpus_read_lock() #12
  tail call void @mutex_lock(ptr noundef nonnull @static_call_mutex) #12
  %5 = load ptr, ptr %0, align 8
  %6 = icmp eq ptr %5, %2
  br i1 %6, label %.loopexit6, label %7

7:                                                ; preds = %3
  store ptr %2, ptr %0, align 8
  tail call void @arch_static_call_transform(ptr noundef null, ptr noundef %1, ptr noundef %2, i1 noundef zeroext false) #12
  %8 = load i32, ptr @static_call_initialized, align 4
  %9 = icmp eq i32 %8, 0
  br i1 %9, label %10, label %.preheader9, !prof !6

10:                                               ; preds = %7
  tail call void asm sideeffect "315: nop\0A\09.pushsection .discard.instr_begin\0A\09.long 315b - .\0A\09.popsection\0A\09", "i,~{dirflag},~{fpsr},~{flags}"(i32 315) #12, !srcloc !10
  tail call void asm sideeffect "1:\09.byte 0x0f, 0x0b\0A.pushsection __bug_table,\22aw\22\0A2:\09.long 1b - .\09# bug_entry::bug_addr\0A\09.long ${0:c} - .\09# bug_entry::file\0A\09.word ${1:c}\09# bug_entry::line\0A\09.word ${2:c}\09# bug_entry::flags\0A\09.org 2b+${3:c}\0A.popsection\0A998:\0A\09.pushsection .discard.reachable\0A\09.long 998b\0A\09.popsection\0A\09", "i,i,i,i,~{dirflag},~{fpsr},~{flags}"(ptr nonnull @.str, i32 153, i32 2307, i64 12) #12, !srcloc !11
  tail call void asm sideeffect "316: nop\0A\09.pushsection .discard.instr_end\0A\09.long 316b - .\0A\09.popsection\0A\09", "i,~{dirflag},~{fpsr},~{flags}"(i32 316) #12, !srcloc !12
  br label %.loopexit6

.preheader9:                                      ; preds = %7
  %11 = getelementptr inbounds i8, ptr %0, i64 8
  %12 = load i64, ptr %11, align 8
  %13 = and i64 %12, 1
  %14 = icmp eq i64 %13, 0
  %15 = and i64 %12, -2
  %16 = inttoptr i64 %15 to ptr
  %17 = inttoptr i64 %12 to ptr
  %storemerge = select i1 %14, ptr %17, ptr null
  %.ph = select i1 %14, ptr null, ptr %16
  store ptr %storemerge, ptr %4, align 8
  br label %20

thread-pre-split:                                 ; preds = %.loopexit
  %18 = getelementptr inbounds i8, ptr %111, i64 16
  %19 = getelementptr inbounds i8, ptr %111, i64 8
  %.pr = load ptr, ptr %18, align 8
  %.pr5 = load ptr, ptr %19, align 8
  br label %20

20:                                               ; preds = %.preheader9, %thread-pre-split
  %21 = phi ptr [ %.pr5, %thread-pre-split ], [ null, %.preheader9 ]
  %22 = phi ptr [ %.pr, %thread-pre-split ], [ %.ph, %.preheader9 ]
  %23 = phi ptr [ %111, %thread-pre-split ], [ %4, %.preheader9 ]
  %24 = icmp eq ptr %22, null
  br i1 %24, label %.loopexit, label %25

25:                                               ; preds = %20
  %26 = load i32, ptr @system_state, align 4
  %27 = icmp ult i32 %26, 3
  %28 = icmp eq ptr %21, null
  br i1 %28, label %38, label %29

29:                                               ; preds = %25
  %30 = getelementptr inbounds i8, ptr %21, i64 1096
  %31 = load ptr, ptr %30, align 8
  %32 = getelementptr inbounds i8, ptr %21, i64 1092
  %33 = load i32, ptr %32, align 4
  %34 = sext i32 %33 to i64
  %35 = getelementptr %struct.static_call_site, ptr %31, i64 %34
  %36 = load i32, ptr %21, align 64
  %37 = icmp eq i32 %36, 1
  br label %38

38:                                               ; preds = %29, %25
  %39 = phi i1 [ %37, %29 ], [ %27, %25 ]
  %40 = phi ptr [ %35, %29 ], [ @__stop_static_call_sites, %25 ]
  %41 = icmp ult ptr %22, %40
  br i1 %41, label %.preheader, label %.loopexit

.preheader:                                       ; preds = %38
  %.fr = freeze i1 %39
  br i1 %.fr, label %.preheader.split.us, label %.preheader.split

.preheader.split.us:                              ; preds = %.preheader, %71
  %42 = phi ptr [ %72, %71 ], [ %22, %.preheader ]
  %43 = getelementptr inbounds i8, ptr %42, i64 4
  %44 = load i32, ptr %43, align 4
  %45 = sext i32 %44 to i64
  %46 = ptrtoint ptr %43 to i64
  %47 = add i64 %45, %46
  %48 = and i64 %47, -4
  %49 = inttoptr i64 %48 to ptr
  %50 = icmp eq ptr %49, %0
  br i1 %50, label %51, label %.loopexit

51:                                               ; preds = %.preheader.split.us
  %52 = load i32, ptr %42, align 4
  %53 = sext i32 %52 to i64
  %54 = ptrtoint ptr %42 to i64
  %55 = add i64 %53, %54
  %56 = inttoptr i64 %55 to ptr
  %57 = tail call i32 @kernel_text_address(i64 noundef %55) #12
  %58 = icmp eq i32 %57, 0
  %59 = load i32, ptr %43, align 4
  %60 = zext i32 %59 to i64
  %61 = add i64 %60, %46
  br i1 %58, label %65, label %62

62:                                               ; preds = %51
  %63 = and i64 %61, 1
  %64 = icmp ne i64 %63, 0
  tail call void @arch_static_call_transform(ptr noundef %56, ptr noundef null, ptr noundef %2, i1 noundef zeroext %64) #12
  br label %71

65:                                               ; preds = %51
  %66 = and i64 %61, 2
  %67 = icmp ne i64 %66, 0
  %68 = load i1, ptr @__static_call_update.__already_done, align 1
  %69 = select i1 %67, i1 true, i1 %68
  br i1 %69, label %71, label %70, !prof !13

70:                                               ; preds = %65
  store i1 true, ptr @__static_call_update.__already_done, align 1
  tail call void asm sideeffect "317: nop\0A\09.pushsection .discard.instr_begin\0A\09.long 317b - .\0A\09.popsection\0A\09", "i,~{dirflag},~{fpsr},~{flags}"(i32 317) #12, !srcloc !14
  tail call void (ptr, ...) @__warn_printk(ptr noundef nonnull @.str.1, ptr noundef %56) #12
  tail call void asm sideeffect "318: nop\0A\09.pushsection .discard.instr_begin\0A\09.long 318b - .\0A\09.popsection\0A\09", "i,~{dirflag},~{fpsr},~{flags}"(i32 318) #12, !srcloc !15
  tail call void asm sideeffect "1:\09.byte 0x0f, 0x0b\0A.pushsection __bug_table,\22aw\22\0A2:\09.long 1b - .\09# bug_entry::bug_addr\0A\09.long ${0:c} - .\09# bug_entry::file\0A\09.word ${1:c}\09# bug_entry::line\0A\09.word ${2:c}\09# bug_entry::flags\0A\09.org 2b+${3:c}\0A.popsection\0A998:\0A\09.pushsection .discard.reachable\0A\09.long 998b\0A\09.popsection\0A\09", "i,i,i,i,~{dirflag},~{fpsr},~{flags}"(ptr nonnull @.str, i32 205, i32 2313, i64 12) #12, !srcloc !16
  tail call void asm sideeffect "319: nop\0A\09.pushsection .discard.instr_end\0A\09.long 319b - .\0A\09.popsection\0A\09", "i,~{dirflag},~{fpsr},~{flags}"(i32 319) #12, !srcloc !17
  tail call void asm sideeffect "320: nop\0A\09.pushsection .discard.instr_end\0A\09.long 320b - .\0A\09.popsection\0A\09", "i,~{dirflag},~{fpsr},~{flags}"(i32 320) #12, !srcloc !18
  br label %71

71:                                               ; preds = %70, %65, %62
  %72 = getelementptr i8, ptr %42, i64 8
  %73 = icmp ult ptr %72, %40
  br i1 %73, label %.preheader.split.us, label %.loopexit, !llvm.loop !19

.preheader.split:                                 ; preds = %.preheader, %108
  %74 = phi ptr [ %109, %108 ], [ %22, %.preheader ]
  %75 = getelementptr inbounds i8, ptr %74, i64 4
  %76 = load i32, ptr %75, align 4
  %77 = sext i32 %76 to i64
  %78 = ptrtoint ptr %75 to i64
  %79 = add i64 %77, %78
  %80 = and i64 %79, -4
  %81 = inttoptr i64 %80 to ptr
  %82 = icmp eq ptr %81, %0
  br i1 %82, label %83, label %.loopexit

83:                                               ; preds = %.preheader.split
  %84 = load i32, ptr %74, align 4
  %85 = sext i32 %84 to i64
  %86 = ptrtoint ptr %74 to i64
  %87 = add i64 %85, %86
  %88 = inttoptr i64 %87 to ptr
  %89 = zext i32 %76 to i64
  %90 = add i64 %89, %78
  %91 = and i64 %90, 2
  %92 = icmp eq i64 %91, 0
  br i1 %92, label %93, label %108

93:                                               ; preds = %83
  %94 = tail call i32 @kernel_text_address(i64 noundef %87) #12
  %95 = icmp eq i32 %94, 0
  %96 = load i32, ptr %75, align 4
  %97 = zext i32 %96 to i64
  %98 = add i64 %97, %78
  br i1 %95, label %99, label %105

99:                                               ; preds = %93
  %100 = and i64 %98, 2
  %101 = icmp ne i64 %100, 0
  %102 = load i1, ptr @__static_call_update.__already_done, align 1
  %103 = select i1 %101, i1 true, i1 %102
  br i1 %103, label %108, label %104, !prof !13

104:                                              ; preds = %99
  store i1 true, ptr @__static_call_update.__already_done, align 1
  tail call void asm sideeffect "317: nop\0A\09.pushsection .discard.instr_begin\0A\09.long 317b - .\0A\09.popsection\0A\09", "i,~{dirflag},~{fpsr},~{flags}"(i32 317) #12, !srcloc !14
  tail call void (ptr, ...) @__warn_printk(ptr noundef nonnull @.str.1, ptr noundef %88) #12
  tail call void asm sideeffect "318: nop\0A\09.pushsection .discard.instr_begin\0A\09.long 318b - .\0A\09.popsection\0A\09", "i,~{dirflag},~{fpsr},~{flags}"(i32 318) #12, !srcloc !15
  tail call void asm sideeffect "1:\09.byte 0x0f, 0x0b\0A.pushsection __bug_table,\22aw\22\0A2:\09.long 1b - .\09# bug_entry::bug_addr\0A\09.long ${0:c} - .\09# bug_entry::file\0A\09.word ${1:c}\09# bug_entry::line\0A\09.word ${2:c}\09# bug_entry::flags\0A\09.org 2b+${3:c}\0A.popsection\0A998:\0A\09.pushsection .discard.reachable\0A\09.long 998b\0A\09.popsection\0A\09", "i,i,i,i,~{dirflag},~{fpsr},~{flags}"(ptr nonnull @.str, i32 205, i32 2313, i64 12) #12, !srcloc !16
  tail call void asm sideeffect "319: nop\0A\09.pushsection .discard.instr_end\0A\09.long 319b - .\0A\09.popsection\0A\09", "i,~{dirflag},~{fpsr},~{flags}"(i32 319) #12, !srcloc !17
  tail call void asm sideeffect "320: nop\0A\09.pushsection .discard.instr_end\0A\09.long 320b - .\0A\09.popsection\0A\09", "i,~{dirflag},~{fpsr},~{flags}"(i32 320) #12, !srcloc !18
  br label %108

105:                                              ; preds = %93
  %106 = and i64 %98, 1
  %107 = icmp ne i64 %106, 0
  tail call void @arch_static_call_transform(ptr noundef %88, ptr noundef null, ptr noundef %2, i1 noundef zeroext %107) #12
  br label %108

108:                                              ; preds = %105, %104, %99, %83
  %109 = getelementptr i8, ptr %74, i64 8
  %110 = icmp ult ptr %109, %40
  br i1 %110, label %.preheader.split, label %.loopexit, !llvm.loop !19

.loopexit:                                        ; preds = %.preheader.split, %108, %71, %.preheader.split.us, %38, %20
  %111 = load ptr, ptr %23, align 8
  %112 = icmp eq ptr %111, null
  br i1 %112, label %.loopexit6, label %thread-pre-split, !llvm.loop !22

.loopexit6:                                       ; preds = %.loopexit, %10, %3
  tail call void @mutex_unlock(ptr noundef nonnull @static_call_mutex) #12
  tail call void @cpus_read_unlock() #12
  call void @llvm.lifetime.end.p0(i64 8, ptr nonnull %4)
  ret void
}